; Function Attrs: nofree nounwind memory(argmem: readwrite) uwtable
define dso_local range(i32 -1, 1) i32 @parse_config_key(ptr noundef %0, ptr noundef readonly captures(none) %1, ptr noundef writeonly %2, ptr noundef writeonly captures(none) %3, ptr noundef writeonly captures(none) %4) local_unnamed_addr #22 {
  br label %6

6:                                                ; preds = %8, %5
  %.07.i = phi ptr [ %0, %5 ], [ %9, %8 ]
  %.06.i = phi ptr [ %1, %5 ], [ %11, %8 ]
  %7 = load i8, ptr %.06.i, align 1, !tbaa !4
  %.not.i = icmp eq i8 %7, 0
  br i1 %.not.i, label %13, label %8

8:                                                ; preds = %6
  %9 = getelementptr inbounds nuw i8, ptr %.07.i, i64 1
  %10 = load i8, ptr %.07.i, align 1, !tbaa !4
  %11 = getelementptr inbounds nuw i8, ptr %.06.i, i64 1
  %12 = icmp eq i8 %10, %7
  br i1 %12, label %6, label %skip_prefix.exit, !llvm.loop !93

13:                                               ; preds = %6
  %14 = load i8, ptr %.07.i, align 1, !tbaa !4
  %.not = icmp eq i8 %14, 46
  br i1 %.not, label %15, label %skip_prefix.exit

15:                                               ; preds = %13
  %16 = tail call ptr @strrchr(ptr noundef nonnull dereferenceable(1) %.07.i, i32 noundef 46) #29
  %17 = getelementptr inbounds nuw i8, ptr %16, i64 1
  store ptr %17, ptr %4, align 8, !tbaa !17
  %18 = icmp eq ptr %16, %.07.i
  %.not16 = icmp eq ptr %2, null
  br i1 %18, label %19, label %21

19:                                               ; preds = %15
  br i1 %.not16, label %skip_prefix.exit, label %20

20:                                               ; preds = %19
  store ptr null, ptr %2, align 8, !tbaa !17
  br label %skip_prefix.exit.sink.split

21:                                               ; preds = %15
  br i1 %.not16, label %skip_prefix.exit, label %22

22:                                               ; preds = %21
  %23 = getelementptr inbounds nuw i8, ptr %.07.i, i64 1
  store ptr %23, ptr %2, align 8, !tbaa !17
  %24 = ptrtoint ptr %16 to i64
  %25 = ptrtoint ptr %23 to i64
  %26 = sub i64 %24, %25
  br label %skip_prefix.exit.sink.split

skip_prefix.exit.sink.split:                      ; preds = %20, %22
  %.sink = phi i64 [ %26, %22 ], [ 0, %20 ]
  store i64 %.sink, ptr %3, align 8, !tbaa !16
  br label %skip_prefix.exit

skip_prefix.exit:                                 ; preds = %8, %skip_prefix.exit.sink.split, %19, %21, %13
  %.0 = phi i32 [ -1, %13 ], [ -1, %21 ], [ 0, %19 ], [ 0, %skip_prefix.exit.sink.split ], [ -1, %8 ]
  ret i32 %.0
}